target datalayout = "e-m:e-p270:32:32-p271:32:32-p272:64:64-i64:64-i128:128-f80:128-n8:16:32:64-S128"
target triple = "x86_64-pc-linux-gnu"

%struct.OSSL_TIME = type { i64 }
%struct.CRYPTO_REF_COUNT = type { i32 }
%struct.crypto_ex_data_st = type { ptr, ptr }
%struct.srp_ctx_st = type { ptr, ptr, ptr, ptr, ptr, ptr, ptr, ptr, ptr, ptr, ptr, ptr, ptr, ptr, i32, i64 }
%struct.ssl_ctx_st = type { ptr, ptr, ptr, ptr, ptr, ptr, ptr, i64, ptr, ptr, i32, %struct.OSSL_TIME, ptr, ptr, ptr, %struct.anon.3, %struct.CRYPTO_REF_COUNT, ptr, ptr, ptr, ptr, ptr, ptr, ptr, ptr, ptr, %struct.crypto_ex_data_st, ptr, ptr, ptr, ptr, ptr, ptr, ptr, i64, i32, i32, i32, i64, ptr, ptr, i32, ptr, ptr, i32, i64, [32 x i8], ptr, ptr, ptr, i32, ptr, ptr, ptr, i64, i64, i64, i64, ptr, ptr, ptr, ptr, ptr, %struct.anon.4, ptr, ptr, ptr, ptr, %struct.srp_ctx_st, %struct.dane_ctx_st, ptr, ptr, ptr, ptr, i32, i32, ptr, ptr, i64, i64, ptr, ptr, ptr, i64, ptr, ptr, i32, ptr, ptr, ptr, [14 x i32], [24 x ptr], [14 x ptr], [14 x i64], i64, ptr, ptr, ptr, i64, i64, ptr, i64, i64, i32, i32, i32, i32, ptr, i64, ptr, i64, i64, ptr, ptr }
%struct.anon.3 = type { i32, i32, i32, i32, i32, i32, i32, i32, i32, i32, i32 }
%struct.anon.4 = type { ptr, ptr, [16 x i8], ptr, ptr, ptr, ptr, ptr, i32, i8, i64, ptr, i64, ptr, i64, ptr, i64, ptr, ptr, i64, ptr, ptr, ptr, i64, ptr, ptr, ptr, ptr, [32 x i8] }
%struct.dane_ctx_st = type { ptr, ptr, i8, i64 }
%struct.tls_group_info_st = type { ptr, ptr, ptr, i32, i16, i32, i32, i32, i32, i8 }

; Function Attrs: nounwind uwtable
define ptr @tls1_group_id_lookup(ptr noundef %0, i16 noundef zeroext %1) #1 {
  %3 = alloca ptr, align 8
  %4 = alloca ptr, align 8
  %5 = alloca i16, align 2
  %6 = alloca i64, align 8
  %7 = alloca i32, align 4
  store ptr %0, ptr %4, align 8, !tbaa !80
  store i16 %1, ptr %5, align 2, !tbaa !100
  call void @llvm.lifetime.start.p0(i64 8, ptr %6) #8
  store i64 0, ptr %6, align 8, !tbaa !3
  br label %8

8:                                                ; preds = %33, %2
  %9 = load i64, ptr %6, align 8, !tbaa !3
  %10 = load ptr, ptr %4, align 8, !tbaa !80
  %11 = getelementptr inbounds nuw %struct.ssl_ctx_st, ptr %10, i32 0, i32 98
  %12 = load i64, ptr %11, align 8, !tbaa !96
  %13 = icmp ult i64 %9, %12
  br i1 %13, label %14, label %36

14:                                               ; preds = %8
  %15 = load ptr, ptr %4, align 8, !tbaa !80
  %16 = getelementptr inbounds nuw %struct.ssl_ctx_st, ptr %15, i32 0, i32 97
  %17 = load ptr, ptr %16, align 8, !tbaa !97
  %18 = load i64, ptr %6, align 8, !tbaa !3
  %19 = getelementptr inbounds nuw %struct.tls_group_info_st, ptr %17, i64 %18
  %20 = getelementptr inbounds nuw %struct.tls_group_info_st, ptr %19, i32 0, i32 4
  %21 = load i16, ptr %20, align 4, !tbaa !98
  %22 = zext i16 %21 to i32
  %23 = load i16, ptr %5, align 2, !tbaa !100
  %24 = zext i16 %23 to i32
  %25 = icmp eq i32 %22, %24
  br i1 %25, label %26, label %32

26:                                               ; preds = %14
  %27 = load ptr, ptr %4, align 8, !tbaa !80
  %28 = getelementptr inbounds nuw %struct.ssl_ctx_st, ptr %27, i32 0, i32 97
  %29 = load ptr, ptr %28, align 8, !tbaa !97
  %30 = load i64, ptr %6, align 8, !tbaa !3
  %31 = getelementptr inbounds nuw %struct.tls_group_info_st, ptr %29, i64 %30
  store ptr %31, ptr %3, align 8
  store i32 1, ptr %7, align 4
  br label %37

32:                                               ; preds = %14
  br label %33

33:                                               ; preds = %32
  %34 = load i64, ptr %6, align 8, !tbaa !3
  %35 = add i64 %34, 1
  store i64 %35, ptr %6, align 8, !tbaa !3
  br label %8, !llvm.loop !125

36:                                               ; preds = %8
  store ptr null, ptr %3, align 8
  store i32 1, ptr %7, align 4
  br label %37

37:                                               ; preds = %36, %26
  call void @llvm.lifetime.end.p0(i64 8, ptr %6) #8
  %38 = load ptr, ptr %3, align 8
  ret ptr %38
}