; Function Attrs: nofree norecurse nosync nounwind memory(read, inaccessiblemem: none) uwtable
define ptr @tls1_group_id_lookup(ptr noundef readonly captures(none) %0, i16 noundef zeroext %1) local_unnamed_addr #5 {
  %3 = getelementptr inbounds nuw i8, ptr %0, i64 1664
  %4 = load i64, ptr %3, align 8, !tbaa !91
  %.not = icmp eq i64 %4, 0
  br i1 %.not, label %._crit_edge, label %.lr.ph

.lr.ph:                                           ; preds = %2
  %5 = getelementptr inbounds nuw i8, ptr %0, i64 1656
  %6 = load ptr, ptr %5, align 8, !tbaa !92
  br label %9

7:                                                ; preds = %9
  %8 = add nuw i64 %.09, 1
  %exitcond.not = icmp eq i64 %8, %4
  br i1 %exitcond.not, label %._crit_edge, label %9, !llvm.loop !119

9:                                                ; preds = %.lr.ph, %7
  %.09 = phi i64 [ 0, %.lr.ph ], [ %8, %7 ]
  %10 = getelementptr inbounds nuw %struct.tls_group_info_st, ptr %6, i64 %.09
  %11 = getelementptr inbounds nuw i8, ptr %10, i64 28
  %12 = load i16, ptr %11, align 4, !tbaa !96
  %13 = icmp eq i16 %12, %1
  br i1 %13, label %._crit_edge, label %7

._crit_edge:                                      ; preds = %9, %7, %2
  %.08 = phi ptr [ null, %2 ], [ null, %7 ], [ %10, %9 ]
  ret ptr %.08
}